target datalayout = "e-m:e-p270:32:32-p271:32:32-p272:64:64-i64:64-i128:128-f80:128-n8:16:32:64-S128"
target triple = "x86_64-pc-linux-gnu"

@.str.1518 = private unnamed_addr constant [5 x i8] c"true\00", align 1
@.str.1519 = private unnamed_addr constant [6 x i8] c"false\00", align 1

; Function Attrs: null_pointer_is_valid sspstrong uwtable
define internal i32 @format_amqp_0_10_boolean(ptr noundef %0, i32 noundef %1, i32 noundef %2, ptr noundef %3) #0 {
  %5 = alloca ptr, align 8
  %6 = alloca i32, align 4
  %7 = alloca i32, align 4
  %8 = alloca ptr, align 8
  %9 = alloca i8, align 1
  store ptr %0, ptr %5, align 8
  store i32 %1, ptr %6, align 4
  store i32 %2, ptr %7, align 4
  store ptr %3, ptr %8, align 8
  call void @llvm.lifetime.start.p0(i64 1, ptr %9) #11
  %10 = load ptr, ptr %5, align 8
  %11 = load i32, ptr %6, align 4
  %12 = call zeroext i8 @tvb_get_uint8(ptr noundef %10, i32 noundef %11)
  store i8 %12, ptr %9, align 1
  %13 = call ptr @wmem_packet_scope()
  %14 = load i8, ptr %9, align 1
  %15 = zext i8 %14 to i32
  %16 = icmp ne i32 %15, 0
  %17 = select i1 %16, ptr @.str.1518, ptr @.str.1519
  %18 = call noalias ptr @wmem_strdup(ptr noundef %13, ptr noundef %17)
  %19 = load ptr, ptr %8, align 8
  store ptr %18, ptr %19, align 8
  call void @llvm.lifetime.end.p0(i64 1, ptr %9) #11
  ret i32 1
}