; Function Attrs: null_pointer_is_valid sspstrong uwtable
define internal noundef i32 @format_amqp_0_10_boolean(ptr noundef %0, i32 noundef %1, i32 %2, ptr noundef writeonly captures(none) initializes((0, 8)) %3) #0 {
  %5 = tail call zeroext i8 @tvb_get_uint8(ptr noundef %0, i32 noundef %1)
  %6 = tail call ptr @wmem_packet_scope()
  %.not = icmp eq i8 %5, 0
  %7 = select i1 %.not, ptr @.str.1519, ptr @.str.1518
  %8 = tail call noalias ptr @wmem_strdup(ptr noundef %6, ptr noundef nonnull %7)
  store ptr %8, ptr %3, align 8
  ret i32 1
}